target datalayout = "e-m:e-p270:32:32-p271:32:32-p272:64:64-i64:64-i128:128-f80:128-n8:16:32:64-S128"
target triple = "x86_64-pc-linux-gnu"

%struct.z_stream_s = type { ptr, i32, i64, ptr, i32, i64, ptr, ptr, ptr, ptr, ptr, i32, i64, i64 }
%struct.internal_state = type { ptr, i32, ptr, i64, ptr, i32, i32, ptr, i32, i8, i32, i32, i32, i32, ptr, i64, ptr, ptr, i32, i32, i32, i32, i32, i64, i32, i32, i32, i32, i32, i32, i32, i32, i32, i32, i32, i32, i32, [573 x %struct.ct_data_s], [61 x %struct.ct_data_s], [39 x %struct.ct_data_s], %struct.tree_desc_s, %struct.tree_desc_s, %struct.tree_desc_s, [16 x i16], [573 x i32], i32, i32, [573 x i8], ptr, i32, i32, ptr, i64, i64, i32, i32, i16, i32, i64 }
%struct.ct_data_s = type { %union.anon, %union.anon.0 }
%union.anon = type { i16 }
%union.anon.0 = type { i16 }
%struct.tree_desc_s = type { ptr, i32, ptr }

; Function Attrs: nounwind uwtable
define i32 @deflateEnd(ptr noundef %0) #0 {
  %2 = alloca i32, align 4
  %3 = alloca ptr, align 8
  %4 = alloca i32, align 4
  %5 = alloca i32, align 4
  store ptr %0, ptr %3, align 8, !tbaa !3
  call void @llvm.lifetime.start.p0(i64 4, ptr %4) #5
  %6 = load ptr, ptr %3, align 8, !tbaa !3
  %7 = icmp eq ptr %6, null
  br i1 %7, label %13, label %8

8:                                                ; preds = %1
  %9 = load ptr, ptr %3, align 8, !tbaa !3
  %10 = getelementptr inbounds nuw %struct.z_stream_s, ptr %9, i32 0, i32 7
  %11 = load ptr, ptr %10, align 8, !tbaa !21
  %12 = icmp eq ptr %11, null
  br i1 %12, label %13, label %14

13:                                               ; preds = %8, %1
  store i32 -2, ptr %2, align 4
  store i32 1, ptr %5, align 4
  br label %132

14:                                               ; preds = %8
  %15 = load ptr, ptr %3, align 8, !tbaa !3
  %16 = getelementptr inbounds nuw %struct.z_stream_s, ptr %15, i32 0, i32 7
  %17 = load ptr, ptr %16, align 8, !tbaa !21
  %18 = getelementptr inbounds nuw %struct.internal_state, ptr %17, i32 0, i32 1
  %19 = load i32, ptr %18, align 8, !tbaa !47
  store i32 %19, ptr %4, align 4, !tbaa !8
  %20 = load i32, ptr %4, align 4, !tbaa !8
  %21 = icmp ne i32 %20, 42
  br i1 %21, label %22, label %41

22:                                               ; preds = %14
  %23 = load i32, ptr %4, align 4, !tbaa !8
  %24 = icmp ne i32 %23, 69
  br i1 %24, label %25, label %41

25:                                               ; preds = %22
  %26 = load i32, ptr %4, align 4, !tbaa !8
  %27 = icmp ne i32 %26, 73
  br i1 %27, label %28, label %41

28:                                               ; preds = %25
  %29 = load i32, ptr %4, align 4, !tbaa !8
  %30 = icmp ne i32 %29, 91
  br i1 %30, label %31, label %41

31:                                               ; preds = %28
  %32 = load i32, ptr %4, align 4, !tbaa !8
  %33 = icmp ne i32 %32, 103
  br i1 %33, label %34, label %41

34:                                               ; preds = %31
  %35 = load i32, ptr %4, align 4, !tbaa !8
  %36 = icmp ne i32 %35, 113
  br i1 %36, label %37, label %41

37:                                               ; preds = %34
  %38 = load i32, ptr %4, align 4, !tbaa !8
  %39 = icmp ne i32 %38, 666
  br i1 %39, label %40, label %41

40:                                               ; preds = %37
  store i32 -2, ptr %2, align 4
  store i32 1, ptr %5, align 4
  br label %132

41:                                               ; preds = %37, %34, %31, %28, %25, %22, %14
  %42 = load ptr, ptr %3, align 8, !tbaa !3
  %43 = getelementptr inbounds nuw %struct.z_stream_s, ptr %42, i32 0, i32 7
  %44 = load ptr, ptr %43, align 8, !tbaa !21
  %45 = getelementptr inbounds nuw %struct.internal_state, ptr %44, i32 0, i32 2
  %46 = load ptr, ptr %45, align 8, !tbaa !45
  %47 = icmp ne ptr %46, null
  br i1 %47, label %48, label %60

48:                                               ; preds = %41
  %49 = load ptr, ptr %3, align 8, !tbaa !3
  %50 = getelementptr inbounds nuw %struct.z_stream_s, ptr %49, i32 0, i32 9
  %51 = load ptr, ptr %50, align 8, !tbaa !19
  %52 = load ptr, ptr %3, align 8, !tbaa !3
  %53 = getelementptr inbounds nuw %struct.z_stream_s, ptr %52, i32 0, i32 10
  %54 = load ptr, ptr %53, align 8, !tbaa !18
  %55 = load ptr, ptr %3, align 8, !tbaa !3
  %56 = getelementptr inbounds nuw %struct.z_stream_s, ptr %55, i32 0, i32 7
  %57 = load ptr, ptr %56, align 8, !tbaa !21
  %58 = getelementptr inbounds nuw %struct.internal_state, ptr %57, i32 0, i32 2
  %59 = load ptr, ptr %58, align 8, !tbaa !45
  call void %51(ptr noundef %54, ptr noundef %59)
  br label %60

60:                                               ; preds = %48, %41
  %61 = load ptr, ptr %3, align 8, !tbaa !3
  %62 = getelementptr inbounds nuw %struct.z_stream_s, ptr %61, i32 0, i32 7
  %63 = load ptr, ptr %62, align 8, !tbaa !21
  %64 = getelementptr inbounds nuw %struct.internal_state, ptr %63, i32 0, i32 17
  %65 = load ptr, ptr %64, align 8, !tbaa !41
  %66 = icmp ne ptr %65, null
  br i1 %66, label %67, label %79

67:                                               ; preds = %60
  %68 = load ptr, ptr %3, align 8, !tbaa !3
  %69 = getelementptr inbounds nuw %struct.z_stream_s, ptr %68, i32 0, i32 9
  %70 = load ptr, ptr %69, align 8, !tbaa !19
  %71 = load ptr, ptr %3, align 8, !tbaa !3
  %72 = getelementptr inbounds nuw %struct.z_stream_s, ptr %71, i32 0, i32 10
  %73 = load ptr, ptr %72, align 8, !tbaa !18
  %74 = load ptr, ptr %3, align 8, !tbaa !3
  %75 = getelementptr inbounds nuw %struct.z_stream_s, ptr %74, i32 0, i32 7
  %76 = load ptr, ptr %75, align 8, !tbaa !21
  %77 = getelementptr inbounds nuw %struct.internal_state, ptr %76, i32 0, i32 17
  %78 = load ptr, ptr %77, align 8, !tbaa !41
  call void %70(ptr noundef %73, ptr noundef %78)
  br label %79

79:                                               ; preds = %67, %60
  %80 = load ptr, ptr %3, align 8, !tbaa !3
  %81 = getelementptr inbounds nuw %struct.z_stream_s, ptr %80, i32 0, i32 7
  %82 = load ptr, ptr %81, align 8, !tbaa !21
  %83 = getelementptr inbounds nuw %struct.internal_state, ptr %82, i32 0, i32 16
  %84 = load ptr, ptr %83, align 8, !tbaa !40
  %85 = icmp ne ptr %84, null
  br i1 %85, label %86, label %98

86:                                               ; preds = %79
  %87 = load ptr, ptr %3, align 8, !tbaa !3
  %88 = getelementptr inbounds nuw %struct.z_stream_s, ptr %87, i32 0, i32 9
  %89 = load ptr, ptr %88, align 8, !tbaa !19
  %90 = load ptr, ptr %3, align 8, !tbaa !3
  %91 = getelementptr inbounds nuw %struct.z_stream_s, ptr %90, i32 0, i32 10
  %92 = load ptr, ptr %91, align 8, !tbaa !18
  %93 = load ptr, ptr %3, align 8, !tbaa !3
  %94 = getelementptr inbounds nuw %struct.z_stream_s, ptr %93, i32 0, i32 7
  %95 = load ptr, ptr %94, align 8, !tbaa !21
  %96 = getelementptr inbounds nuw %struct.internal_state, ptr %95, i32 0, i32 16
  %97 = load ptr, ptr %96, align 8, !tbaa !40
  call void %89(ptr noundef %92, ptr noundef %97)
  br label %98

98:                                               ; preds = %86, %79
  %99 = load ptr, ptr %3, align 8, !tbaa !3
  %100 = getelementptr inbounds nuw %struct.z_stream_s, ptr %99, i32 0, i32 7
  %101 = load ptr, ptr %100, align 8, !tbaa !21
  %102 = getelementptr inbounds nuw %struct.internal_state, ptr %101, i32 0, i32 14
  %103 = load ptr, ptr %102, align 8, !tbaa !39
  %104 = icmp ne ptr %103, null
  br i1 %104, label %105, label %117

105:                                              ; preds = %98
  %106 = load ptr, ptr %3, align 8, !tbaa !3
  %107 = getelementptr inbounds nuw %struct.z_stream_s, ptr %106, i32 0, i32 9
  %108 = load ptr, ptr %107, align 8, !tbaa !19
  %109 = load ptr, ptr %3, align 8, !tbaa !3
  %110 = getelementptr inbounds nuw %struct.z_stream_s, ptr %109, i32 0, i32 10
  %111 = load ptr, ptr %110, align 8, !tbaa !18
  %112 = load ptr, ptr %3, align 8, !tbaa !3
  %113 = getelementptr inbounds nuw %struct.z_stream_s, ptr %112, i32 0, i32 7
  %114 = load ptr, ptr %113, align 8, !tbaa !21
  %115 = getelementptr inbounds nuw %struct.internal_state, ptr %114, i32 0, i32 14
  %116 = load ptr, ptr %115, align 8, !tbaa !39
  call void %108(ptr noundef %111, ptr noundef %116)
  br label %117

117:                                              ; preds = %105, %98
  %118 = load ptr, ptr %3, align 8, !tbaa !3
  %119 = getelementptr inbounds nuw %struct.z_stream_s, ptr %118, i32 0, i32 9
  %120 = load ptr, ptr %119, align 8, !tbaa !19
  %121 = load ptr, ptr %3, align 8, !tbaa !3
  %122 = getelementptr inbounds nuw %struct.z_stream_s, ptr %121, i32 0, i32 10
  %123 = load ptr, ptr %122, align 8, !tbaa !18
  %124 = load ptr, ptr %3, align 8, !tbaa !3
  %125 = getelementptr inbounds nuw %struct.z_stream_s, ptr %124, i32 0, i32 7
  %126 = load ptr, ptr %125, align 8, !tbaa !21
  call void %120(ptr noundef %123, ptr noundef %126)
  %127 = load ptr, ptr %3, align 8, !tbaa !3
  %128 = getelementptr inbounds nuw %struct.z_stream_s, ptr %127, i32 0, i32 7
  store ptr null, ptr %128, align 8, !tbaa !21
  %129 = load i32, ptr %4, align 4, !tbaa !8
  %130 = icmp eq i32 %129, 113
  %131 = select i1 %130, i32 -3, i32 0
  store i32 %131, ptr %2, align 4
  store i32 1, ptr %5, align 4
  br label %132

132:                                              ; preds = %117, %40, %13
  call void @llvm.lifetime.end.p0(i64 4, ptr %4) #5
  %133 = load i32, ptr %2, align 4
  ret i32 %133
}