; Function Attrs: nounwind uwtable
define range(i32 -3, 1) i32 @deflateEnd(ptr noundef %0) local_unnamed_addr #0 {
  %2 = icmp eq ptr %0, null
  br i1 %2, label %53, label %3

3:                                                ; preds = %1
  %4 = getelementptr inbounds nuw i8, ptr %0, i64 56
  %5 = load ptr, ptr %4, align 8, !tbaa !16
  %6 = icmp eq ptr %5, null
  br i1 %6, label %53, label %7

7:                                                ; preds = %3
  %8 = getelementptr inbounds nuw i8, ptr %5, i64 8
  %9 = load i32, ptr %8, align 8, !tbaa !42
  switch i32 %9, label %53 [
    i32 666, label %10
    i32 113, label %10
    i32 103, label %10
    i32 91, label %10
    i32 73, label %10
    i32 69, label %10
    i32 42, label %10
  ]

10:                                               ; preds = %7, %7, %7, %7, %7, %7, %7
  %11 = getelementptr inbounds nuw i8, ptr %5, i64 16
  %12 = load ptr, ptr %11, align 8, !tbaa !40
  %.not = icmp eq ptr %12, null
  br i1 %.not, label %18, label %13

13:                                               ; preds = %10
  %14 = getelementptr inbounds nuw i8, ptr %0, i64 72
  %15 = load ptr, ptr %14, align 8, !tbaa !15
  %16 = getelementptr inbounds nuw i8, ptr %0, i64 80
  %17 = load ptr, ptr %16, align 8, !tbaa !14
  tail call void %15(ptr noundef %17, ptr noundef nonnull %12) #10
  %.pre = load ptr, ptr %4, align 8, !tbaa !16
  br label %18

18:                                               ; preds = %13, %10
  %19 = phi ptr [ %.pre, %13 ], [ %5, %10 ]
  %20 = getelementptr inbounds nuw i8, ptr %19, i64 104
  %21 = load ptr, ptr %20, align 8, !tbaa !37
  %.not48 = icmp eq ptr %21, null
  br i1 %.not48, label %27, label %22

22:                                               ; preds = %18
  %23 = getelementptr inbounds nuw i8, ptr %0, i64 72
  %24 = load ptr, ptr %23, align 8, !tbaa !15
  %25 = getelementptr inbounds nuw i8, ptr %0, i64 80
  %26 = load ptr, ptr %25, align 8, !tbaa !14
  tail call void %24(ptr noundef %26, ptr noundef nonnull %21) #10
  %.pre51 = load ptr, ptr %4, align 8, !tbaa !16
  br label %27

27:                                               ; preds = %22, %18
  %28 = phi ptr [ %.pre51, %22 ], [ %19, %18 ]
  %29 = getelementptr inbounds nuw i8, ptr %28, i64 96
  %30 = load ptr, ptr %29, align 8, !tbaa !36
  %.not49 = icmp eq ptr %30, null
  br i1 %.not49, label %36, label %31

31:                                               ; preds = %27
  %32 = getelementptr inbounds nuw i8, ptr %0, i64 72
  %33 = load ptr, ptr %32, align 8, !tbaa !15
  %34 = getelementptr inbounds nuw i8, ptr %0, i64 80
  %35 = load ptr, ptr %34, align 8, !tbaa !14
  tail call void %33(ptr noundef %35, ptr noundef nonnull %30) #10
  %.pre52 = load ptr, ptr %4, align 8, !tbaa !16
  br label %36

36:                                               ; preds = %31, %27
  %37 = phi ptr [ %.pre52, %31 ], [ %28, %27 ]
  %38 = getelementptr inbounds nuw i8, ptr %37, i64 80
  %39 = load ptr, ptr %38, align 8, !tbaa !35
  %.not50 = icmp eq ptr %39, null
  br i1 %.not50, label %45, label %40

40:                                               ; preds = %36
  %41 = getelementptr inbounds nuw i8, ptr %0, i64 72
  %42 = load ptr, ptr %41, align 8, !tbaa !15
  %43 = getelementptr inbounds nuw i8, ptr %0, i64 80
  %44 = load ptr, ptr %43, align 8, !tbaa !14
  tail call void %42(ptr noundef %44, ptr noundef nonnull %39) #10
  %.pre53 = load ptr, ptr %4, align 8, !tbaa !16
  br label %45

45:                                               ; preds = %40, %36
  %46 = phi ptr [ %.pre53, %40 ], [ %37, %36 ]
  %47 = getelementptr inbounds nuw i8, ptr %0, i64 72
  %48 = load ptr, ptr %47, align 8, !tbaa !15
  %49 = getelementptr inbounds nuw i8, ptr %0, i64 80
  %50 = load ptr, ptr %49, align 8, !tbaa !14
  tail call void %48(ptr noundef %50, ptr noundef %46) #10
  store ptr null, ptr %4, align 8, !tbaa !16
  %51 = icmp eq i32 %9, 113
  %52 = select i1 %51, i32 -3, i32 0
  br label %53

53:                                               ; preds = %7, %1, %3, %45
  %.0 = phi i32 [ %52, %45 ], [ -2, %3 ], [ -2, %1 ], [ -2, %7 ]
  ret i32 %.0
}